; Function Attrs: mustprogress nounwind uwtable
define void @_Z23textFileFormatYyrestartP8_IO_FILEPv(ptr noundef %0, ptr noundef captures(none) %1) local_unnamed_addr #1 {
  %3 = getelementptr inbounds nuw i8, ptr %1, i64 40
  %4 = load ptr, ptr %3, align 8
  %.not = icmp eq ptr %4, null
  br i1 %.not, label %11, label %5

5:                                                ; preds = %2
  %6 = getelementptr inbounds nuw i8, ptr %1, i64 24
  %7 = load i64, ptr %6, align 8
  %8 = getelementptr inbounds ptr, ptr %4, i64 %7
  %9 = load ptr, ptr %8, align 8
  %10 = icmp eq ptr %9, null
  br i1 %10, label %.critedge, label %.thread

11:                                               ; preds = %2
  %12 = tail call noalias noundef dereferenceable_or_null(8) ptr @malloc(i64 noundef 8) #30
  store ptr %12, ptr %3, align 8
  %.not26.i = icmp eq ptr %12, null
  br i1 %.not26.i, label %13, label %14

13:                                               ; preds = %11
  tail call fastcc void @_ZL14yy_fatal_errorPKcPv(ptr noundef nonnull @.str.15)
  unreachable

14:                                               ; preds = %11
  store i64 0, ptr %12, align 8
  %15 = getelementptr inbounds nuw i8, ptr %1, i64 32
  store i64 1, ptr %15, align 8
  %16 = getelementptr inbounds nuw i8, ptr %1, i64 24
  store i64 0, ptr %16, align 8
  br label %_ZL35textFileFormatYyensure_buffer_stackPv.exit

.critedge:                                        ; preds = %5
  %17 = getelementptr inbounds nuw i8, ptr %1, i64 32
  %18 = load i64, ptr %17, align 8
  %19 = add i64 %18, -1
  %.not27.i = icmp ult i64 %7, %19
  br i1 %.not27.i, label %_ZL35textFileFormatYyensure_buffer_stackPv.exit, label %20

20:                                               ; preds = %.critedge
  %21 = add i64 %18, 8
  %22 = shl i64 %21, 3
  %23 = tail call noalias noundef ptr @realloc(ptr noundef nonnull %4, i64 noundef %22) #31
  store ptr %23, ptr %3, align 8
  %.not28.i = icmp eq ptr %23, null
  br i1 %.not28.i, label %24, label %25

24:                                               ; preds = %20
  tail call fastcc void @_ZL14yy_fatal_errorPKcPv(ptr noundef nonnull @.str.15)
  unreachable

25:                                               ; preds = %20
  %26 = load i64, ptr %17, align 8
  %27 = getelementptr inbounds ptr, ptr %23, i64 %26
  tail call void @llvm.memset.p0.i64(ptr noundef nonnull align 8 dereferenceable(64) %27, i8 0, i64 64, i1 false)
  store i64 %21, ptr %17, align 8
  br label %_ZL35textFileFormatYyensure_buffer_stackPv.exit

_ZL35textFileFormatYyensure_buffer_stackPv.exit:  ; preds = %14, %.critedge, %25
  %28 = getelementptr inbounds nuw i8, ptr %1, i64 8
  %29 = load ptr, ptr %28, align 8
  %30 = tail call noalias noundef dereferenceable_or_null(72) ptr @malloc(i64 noundef 72) #30
  %.not.i18 = icmp eq ptr %30, null
  br i1 %.not.i18, label %31, label %32

31:                                               ; preds = %_ZL35textFileFormatYyensure_buffer_stackPv.exit
  tail call fastcc void @_ZL14yy_fatal_errorPKcPv(ptr noundef nonnull @.str.5)
  unreachable

32:                                               ; preds = %_ZL35textFileFormatYyensure_buffer_stackPv.exit
  %33 = getelementptr inbounds nuw i8, ptr %30, i64 24
  store i64 16384, ptr %33, align 8
  %34 = tail call noalias noundef dereferenceable_or_null(16386) ptr @malloc(i64 noundef 16386) #30
  %35 = getelementptr inbounds nuw i8, ptr %30, i64 8
  store ptr %34, ptr %35, align 8
  %.not14.i = icmp eq ptr %34, null
  br i1 %.not14.i, label %36, label %37

36:                                               ; preds = %32
  tail call fastcc void @_ZL14yy_fatal_errorPKcPv(ptr noundef nonnull @.str.5)
  unreachable

37:                                               ; preds = %32
  %38 = getelementptr inbounds nuw i8, ptr %30, i64 40
  store i32 1, ptr %38, align 8
  tail call fastcc void @_ZL28textFileFormatYy_init_bufferP15yy_buffer_stateP8_IO_FILEPv(ptr noundef nonnull %30, ptr noundef %29, ptr noundef nonnull %1)
  %39 = load ptr, ptr %3, align 8
  %40 = getelementptr inbounds nuw i8, ptr %1, i64 24
  %41 = load i64, ptr %40, align 8
  %42 = getelementptr inbounds ptr, ptr %39, i64 %41
  store ptr %30, ptr %42, align 8
  %.pre = load ptr, ptr %3, align 8
  %.not17 = icmp eq ptr %.pre, null
  br i1 %.not17, label %48, label %.thread

.thread:                                          ; preds = %5, %37
  %43 = phi ptr [ %.pre, %37 ], [ %4, %5 ]
  %44 = getelementptr inbounds nuw i8, ptr %1, i64 24
  %45 = load i64, ptr %44, align 8
  %46 = getelementptr inbounds ptr, ptr %43, i64 %45
  %47 = load ptr, ptr %46, align 8
  br label %48

48:                                               ; preds = %37, %.thread
  %49 = phi ptr [ %47, %.thread ], [ null, %37 ]
  tail call fastcc void @_ZL28textFileFormatYy_init_bufferP15yy_buffer_stateP8_IO_FILEPv(ptr noundef %49, ptr noundef %0, ptr noundef nonnull %1)
  %50 = load ptr, ptr %3, align 8
  %51 = getelementptr inbounds nuw i8, ptr %1, i64 24
  %52 = load i64, ptr %51, align 8
  %53 = getelementptr inbounds ptr, ptr %50, i64 %52
  %54 = load ptr, ptr %53, align 8
  %55 = getelementptr inbounds nuw i8, ptr %54, i64 32
  %56 = load i64, ptr %55, align 8
  %57 = getelementptr inbounds nuw i8, ptr %1, i64 56
  store i64 %56, ptr %57, align 8
  %58 = load ptr, ptr %53, align 8
  %59 = getelementptr inbounds nuw i8, ptr %58, i64 16
  %60 = load ptr, ptr %59, align 8
  %61 = getelementptr inbounds nuw i8, ptr %1, i64 72
  store ptr %60, ptr %61, align 8
  %62 = getelementptr inbounds nuw i8, ptr %1, i64 136
  store ptr %60, ptr %62, align 8
  %63 = load ptr, ptr %53, align 8
  %64 = load ptr, ptr %63, align 8
  %65 = getelementptr inbounds nuw i8, ptr %1, i64 8
  store ptr %64, ptr %65, align 8
  %66 = load i8, ptr %60, align 1
  %67 = getelementptr inbounds nuw i8, ptr %1, i64 48
  store i8 %66, ptr %67, align 8
  ret void
}